target datalayout = "e-m:e-p270:32:32-p271:32:32-p272:64:64-i64:64-i128:128-f80:128-n8:16:32:64-S128"
target triple = "x86_64-pc-linux-gnu"

%"struct.std::array" = type { [3 x i16] }
%"class.LIEF::MachO::DylibCommand" = type <{ %"class.LIEF::MachO::LoadCommand", %"class.std::__cxx11::basic_string", i32, i32, i32, [4 x i8] }>
%"class.LIEF::MachO::LoadCommand" = type { %"class.LIEF::Object", %"class.std::vector", i64, i32, i64 }
%"class.LIEF::Object" = type { ptr }
%"class.std::vector" = type { %"struct.std::_Vector_base" }
%"struct.std::_Vector_base" = type { %"struct.std::_Vector_base<unsigned char, std::allocator<unsigned char>>::_Vector_impl" }
%"struct.std::_Vector_base<unsigned char, std::allocator<unsigned char>>::_Vector_impl" = type { %"struct.std::_Vector_base<unsigned char, std::allocator<unsigned char>>::_Vector_impl_data" }
%"struct.std::_Vector_base<unsigned char, std::allocator<unsigned char>>::_Vector_impl_data" = type { ptr, ptr, ptr }
%"class.std::__cxx11::basic_string" = type { %"struct.std::__cxx11::basic_string<char>::_Alloc_hider", i64, %union.anon }
%"struct.std::__cxx11::basic_string<char>::_Alloc_hider" = type { ptr }
%union.anon = type { i64, [8 x i8] }

; Function Attrs: mustprogress nounwind uwtable
define i48 @_ZN4LIEF5MachO12DylibCommand11int2versionEj(i32 noundef %0) #0 align 2 {
  %2 = alloca %"struct.std::array", align 2
  %3 = alloca i32, align 4
  %4 = alloca i48, align 8
  store i32 %0, ptr %3, align 4
  %5 = getelementptr inbounds %"struct.std::array", ptr %2, i32 0, i32 0
  %6 = getelementptr inbounds [3 x i16], ptr %5, i64 0, i64 0
  %7 = load i32, ptr %3, align 4
  %8 = lshr i32 %7, 16
  %9 = trunc i32 %8 to i16
  store i16 %9, ptr %6, align 2
  %10 = getelementptr inbounds i16, ptr %6, i64 1
  %11 = load i32, ptr %3, align 4
  %12 = lshr i32 %11, 8
  %13 = and i32 %12, 255
  %14 = trunc i32 %13 to i16
  store i16 %14, ptr %10, align 2
  %15 = getelementptr inbounds i16, ptr %10, i64 1
  %16 = load i32, ptr %3, align 4
  %17 = and i32 %16, 255
  %18 = trunc i32 %17 to i16
  store i16 %18, ptr %15, align 2
  %19 = getelementptr inbounds %"struct.std::array", ptr %2, i32 0, i32 0
  call void @llvm.memcpy.p0.p0.i64(ptr align 8 %4, ptr align 2 %19, i64 6, i1 false)
  %20 = load i48, ptr %4, align 8
  ret i48 %20
}

; Function Attrs: mustprogress nounwind uwtable
define i48 @_ZNK4LIEF5MachO12DylibCommand21compatibility_versionEv(ptr noundef nonnull align 8 dereferenceable(100) %0) #0 align 2 {
  %2 = alloca %"struct.std::array", align 2
  %3 = alloca ptr, align 8
  %4 = alloca i48, align 8
  %5 = alloca i48, align 8
  store ptr %0, ptr %3, align 8
  %6 = load ptr, ptr %3, align 8
  %7 = getelementptr inbounds %"class.LIEF::MachO::DylibCommand", ptr %6, i32 0, i32 4
  %8 = load i32, ptr %7, align 8
  %9 = call i48 @_ZN4LIEF5MachO12DylibCommand11int2versionEj(i32 noundef %8)
  %10 = getelementptr inbounds %"struct.std::array", ptr %2, i32 0, i32 0
  store i48 %9, ptr %4, align 8
  call void @llvm.memcpy.p0.p0.i64(ptr align 2 %10, ptr align 8 %4, i64 6, i1 false)
  %11 = getelementptr inbounds %"struct.std::array", ptr %2, i32 0, i32 0
  call void @llvm.memcpy.p0.p0.i64(ptr align 8 %5, ptr align 2 %11, i64 6, i1 false)
  %12 = load i48, ptr %5, align 8
  ret i48 %12
}